(dp1
S'__orderedConfigNames__'
p2
(lp3
S'modifiableByUser'
p4
aS'ModelInConfig'
p5
aS'opts'
p6
aS'model'
p7
aS'XModel'
p8
asS'__itemConfigurations__'
p9
(dp10
g4
I00
sg8
S'eval://localhost/@DefaultEvaluator/Quantity(rand(256),"m")'
p11
sg7
S'eval:Quantity(rand(256),"m")'
p12
sg5
I01
sg6
(dp13
S'symbolPen_cosmetic'
p14
I01
sS'symbolPen_dash'
p15
(lp16
sS'stepMode'
p17
NsS'fillBrush'
p18
NsS'pen_dash'
p19
(lp20
sS'autoDownsampleFactor'
p21
F5
sS'logMode'
p22
(lp23
I00
aI00
asS'connect'
p24
S'all'
p25
sS'downsampleMethod'
p26
S'peak'
p27
sS'clipToView'
p28
I00
sS'symbolBrush'
p29
S'323296ff'
p30
sS'downsample'
p31
I1
sS'data'
p32
NsS'pen_cosmetic'
p33
I01
sS'pen'
p34
S'c8c8c8ff'
p35
sS'alphaHint'
p36
F1
sS'symbolPen_style'
p37
csip
_unpickle_enum
p38
(S'PyQt4.QtCore'
p39
S'PenStyle'
I1
tRp40
sS'pen_width'
p41
I1
sS'autoDownsample'
p42
I00
sS'pxMode'
p43
I01
sS'pointMode'
p44
NsS'symbol'
p45
NsS'symbolPen'
p46
S'c8c8c8ff'
p47
sS'antialias'
p48
I00
sS'pen_style'
p49
g38
(g39
S'PenStyle'
I1
tRp50
sS'shadowPen'
p51
NsS'fftMode'
p52
I00
sS'name'
p53
S'st2 plot'
p54
sS'fillLevel'
p55
NsS'symbolPen_width'
p56
I1
sS'alphaMode'
p57
I00
sS'symbolSize'
p58
I10
sS'symbolBrush_style'
p59
g38
(g39
S'BrushStyle'
I1
tRp60
sssS'ConfigVersion'
p61
S'__UNVERSIONED__'
p62
sS'__pickable__'
p63
I01
s.